; Function Attrs: mustprogress nounwind uwtable
define internal fastcc void @_ZL21PrintThreadLocalModelN4llvm11GlobalValue15ThreadLocalModeERNS_21formatted_raw_ostreamE(i32 noundef %0, ptr noundef nonnull align 8 dereferenceable(105) %1) unnamed_addr #1 {
  switch i32 %0, label %_ZN4llvm11raw_ostreamlsEPKc.exit [
    i32 4, label %45
    i32 1, label %3
    i32 2, label %17
    i32 3, label %31
  ]

3:                                                ; preds = %2
  %4 = getelementptr inbounds nuw i8, ptr %1, i64 24
  %5 = load ptr, ptr %4, align 8
  %6 = getelementptr inbounds nuw i8, ptr %1, i64 32
  %7 = load ptr, ptr %6, align 8
  %8 = ptrtoint ptr %5 to i64
  %9 = ptrtoint ptr %7 to i64
  %10 = sub i64 %8, %9
  %11 = icmp ult i64 %10, 13
  br i1 %11, label %12, label %14

12:                                               ; preds = %3
  %13 = tail call noundef nonnull align 8 dereferenceable(48) ptr @_ZN4llvm11raw_ostream5writeEPKcm(ptr noundef nonnull align 8 dereferenceable(48) %1, ptr noundef nonnull @.str.380, i64 noundef 13) #25
  br label %_ZN4llvm11raw_ostreamlsEPKc.exit

14:                                               ; preds = %3
  tail call void @llvm.memcpy.p0.p0.i64(ptr noundef nonnull align 1 dereferenceable(13) %7, ptr noundef nonnull align 1 dereferenceable(13) @.str.380, i64 13, i1 false)
  %15 = load ptr, ptr %6, align 8
  %16 = getelementptr inbounds i8, ptr %15, i64 13
  store ptr %16, ptr %6, align 8
  br label %_ZN4llvm11raw_ostreamlsEPKc.exit

17:                                               ; preds = %2
  %18 = getelementptr inbounds nuw i8, ptr %1, i64 24
  %19 = load ptr, ptr %18, align 8
  %20 = getelementptr inbounds nuw i8, ptr %1, i64 32
  %21 = load ptr, ptr %20, align 8
  %22 = ptrtoint ptr %19 to i64
  %23 = ptrtoint ptr %21 to i64
  %24 = sub i64 %22, %23
  %25 = icmp ult i64 %24, 27
  br i1 %25, label %26, label %28

26:                                               ; preds = %17
  %27 = tail call noundef nonnull align 8 dereferenceable(48) ptr @_ZN4llvm11raw_ostream5writeEPKcm(ptr noundef nonnull align 8 dereferenceable(48) %1, ptr noundef nonnull @.str.381, i64 noundef 27) #25
  br label %_ZN4llvm11raw_ostreamlsEPKc.exit

28:                                               ; preds = %17
  tail call void @llvm.memcpy.p0.p0.i64(ptr noundef nonnull align 1 dereferenceable(27) %21, ptr noundef nonnull align 1 dereferenceable(27) @.str.381, i64 27, i1 false)
  %29 = load ptr, ptr %20, align 8
  %30 = getelementptr inbounds i8, ptr %29, i64 27
  store ptr %30, ptr %20, align 8
  br label %_ZN4llvm11raw_ostreamlsEPKc.exit

31:                                               ; preds = %2
  %32 = getelementptr inbounds nuw i8, ptr %1, i64 24
  %33 = load ptr, ptr %32, align 8
  %34 = getelementptr inbounds nuw i8, ptr %1, i64 32
  %35 = load ptr, ptr %34, align 8
  %36 = ptrtoint ptr %33 to i64
  %37 = ptrtoint ptr %35 to i64
  %38 = sub i64 %36, %37
  %39 = icmp ult i64 %38, 26
  br i1 %39, label %40, label %42

40:                                               ; preds = %31
  %41 = tail call noundef nonnull align 8 dereferenceable(48) ptr @_ZN4llvm11raw_ostream5writeEPKcm(ptr noundef nonnull align 8 dereferenceable(48) %1, ptr noundef nonnull @.str.382, i64 noundef 26) #25
  br label %_ZN4llvm11raw_ostreamlsEPKc.exit

42:                                               ; preds = %31
  tail call void @llvm.memcpy.p0.p0.i64(ptr noundef nonnull align 1 dereferenceable(26) %35, ptr noundef nonnull align 1 dereferenceable(26) @.str.382, i64 26, i1 false)
  %43 = load ptr, ptr %34, align 8
  %44 = getelementptr inbounds i8, ptr %43, i64 26
  store ptr %44, ptr %34, align 8
  br label %_ZN4llvm11raw_ostreamlsEPKc.exit

45:                                               ; preds = %2
  %46 = getelementptr inbounds nuw i8, ptr %1, i64 24
  %47 = load ptr, ptr %46, align 8
  %48 = getelementptr inbounds nuw i8, ptr %1, i64 32
  %49 = load ptr, ptr %48, align 8
  %50 = ptrtoint ptr %47 to i64
  %51 = ptrtoint ptr %49 to i64
  %52 = sub i64 %50, %51
  %53 = icmp ult i64 %52, 24
  br i1 %53, label %54, label %56

54:                                               ; preds = %45
  %55 = tail call noundef nonnull align 8 dereferenceable(48) ptr @_ZN4llvm11raw_ostream5writeEPKcm(ptr noundef nonnull align 8 dereferenceable(48) %1, ptr noundef nonnull @.str.383, i64 noundef 24) #25
  br label %_ZN4llvm11raw_ostreamlsEPKc.exit

56:                                               ; preds = %45
  tail call void @llvm.memcpy.p0.p0.i64(ptr noundef nonnull align 1 dereferenceable(24) %49, ptr noundef nonnull align 1 dereferenceable(24) @.str.383, i64 24, i1 false)
  %57 = load ptr, ptr %48, align 8
  %58 = getelementptr inbounds i8, ptr %57, i64 24
  store ptr %58, ptr %48, align 8
  br label %_ZN4llvm11raw_ostreamlsEPKc.exit

_ZN4llvm11raw_ostreamlsEPKc.exit:                 ; preds = %56, %54, %42, %40, %28, %26, %14, %12, %2
  ret void
}